Certificate:
    Data:
        Version: 3 (0x2)
        Serial Number:
            79:7b:32:11:cf:76:41:f5:a2:e3:1f:c3:18:b2:1b:23:bb:07:fa:c0
        Signature Algorithm: sha256WithRSAEncryption
        Issuer: CN = postgres
        Validity
            Not Before: Jan 30 22:00:40 2026 GMT
            Not After : Jan 30 22:00:40 2027 GMT
        Subject: CN = postgres
        Subject Public Key Info:
            Public Key Algorithm: rsaEncryption
                Public-Key: (2048 bit)
                Modulus:
                    00:f2:78:74:c6:a2:1d:23:91:3f:58:f7:43:89:6f:
                    f0:9f:d3:45:fd:6b:be:f8:be:a7:70:71:37:46:d5:
                    71:e7:c2:af:ff:9e:a2:98:91:99:c3:43:4b:58:82:
                    61:5c:12:e6:26:ce:20:ef:bd:b2:09:d6:3d:cf:42:
                    7f:48:d5:c0:d0:94:72:fa:41:d8:e0:a9:f9:ba:5d:
                    18:6c:7a:70:2e:d8:a9:ba:d4:9b:d2:5b:cd:54:24:
                    6f:f1:90:ef:2b:43:ce:89:05:04:63:f0:2f:1e:0e:
                    f8:b4:06:99:46:a9:52:e0:19:47:07:7b:3b:65:39:
                    94:0f:19:75:75:52:fa:b2:c2:a8:77:b3:18:59:99:
                    16:46:80:b9:83:d7:84:68:da:23:05:c0:2f:60:57:
                    14:f6:7e:d5:f2:b4:c7:e2:ed:7d:be:f0:41:68:28:
                    08:63:f6:e0:17:54:18:f0:99:72:ad:99:89:ff:25:
                    72:3b:6a:15:b7:70:7a:94:13:fa:a6:34:e3:ce:a9:
                    61:da:db:3f:cf:c9:33:07:9b:47:21:8e:e9:b0:f1:
                    a7:f5:96:3e:fe:85:6a:5d:e6:7c:c1:aa:7c:6a:6e:
                    1d:b3:96:ed:07:52:67:32:74:b1:ae:88:89:47:c5:
                    fc:22:e0:bb:6b:5e:79:f7:42:99:31:88:81:6d:de:
                    e3:89
                Exponent: 65537 (0x10001)
        X509v3 extensions:
            X509v3 Subject Key Identifier:
                B7:27:F5:F5:A4:AF:BE:6C:B2:2E:00:CB:B8:6D:42:70:10:8E:3C:6D
            X509v3 Authority Key Identifier:
                B7:27:F5:F5:A4:AF:BE:6C:B2:2E:00:CB:B8:6D:42:70:10:8E:3C:6D
            X509v3 Basic Constraints: critical
                CA:TRUE
    Signature Algorithm: sha256WithRSAEncryption
    Signature Value:
        e9:c9:c7:f4:11:39:bf:ed:73:8a:cf:ce:86:dc:3c:be:10:e8:
        68:f2:ee:57:3d:a2:e9:7a:e7:96:e5:b1:d3:9d:eb:1b:63:0d:
        19:65:1e:bb:25:36:8c:83:1b:ad:bc:40:b2:d5:bd:62:49:75:
        a8:d9:22:05:63:44:27:77:ba:ff:6c:d8:bc:6d:e5:94:23:99:
        1d:2b:d9:ab:47:79:ad:e2:58:7c:4f:9b:5a:99:d4:4f:c5:07:
        ae:27:3f:fd:8c:d4:9c:1b:94:ae:0e:2a:62:43:4f:98:8b:e9:
        8e:63:02:50:8c:39:b2:a7:8b:f4:89:57:39:e8:4c:5f:b3:48:
        25:0a:3e:a1:ef:05:38:dd:7a:f4:f2:b8:82:ac:60:28:61:38:
        f9:4a:d0:46:59:fd:e8:e3:e6:6d:4b:40:e2:44:24:63:20:de:
        e2:ae:e8:14:9c:c6:c8:7c:e1:f8:2c:ae:9e:bc:b1:0c:49:3b:
        87:0b:82:ec:62:06:2a:6c:3a:af:7d:5b:4c:fe:42:28:ec:86:
        f8:26:58:d3:83:0f:16:e5:f3:84:9e:c6:27:8f:0e:3b:39:06:
        24:9f:f2:73:10:f6:b4:9b:61:e8:a4:93:36:28:79:79:d5:aa:
        16:21:b1:ae:e0:42:fc:53:5e:ee:2e:57:f8:a5:ea:2e:8f:74:
        5c:eb:d9:d5
-----BEGIN CERTIFICATE-----
MIIDBzCCAe+gAwIBAgIUeXsyEc92QfWi4x/DGLIbI7sH+sAwDQYJKoZIhvcNAQEL
BQAwEzERMA8GA1UEAwwIcG9zdGdyZXMwHhcNMjYwMTMwMjIwMDQwWhcNMjcwMTMw
MjIwMDQwWjATMREwDwYDVQQDDAhwb3N0Z3JlczCCASIwDQYJKoZIhvcNAQEBBQAD
ggEPADCCAQoCggEBAPJ4dMaiHSORP1j3Q4lv8J/TRf1rvvi+p3BxN0bVcefCr/+e
opiRmcNDS1iCYVwS5ibOIO+9sgnWPc9Cf0jVwNCUcvpB2OCp+bpdGGx6cC7YqbrU
m9JbzVQkb/GQ7ytDzokFBGPwLx4O+LQGmUapUuAZRwd7O2U5lA8ZdXVS+rLCqHez
GFmZFkaAuYPXhGjaIwXAL2BXFPZ+1fK0x+Ltfb7wQWgoCGP24BdUGPCZcq2Zif8l
cjtqFbdwepQT+qY0486pYdrbP8/JMwebRyGO6bDxp/WWPv6Fal3mfMGqfGpuHbOW
7QdSZzJ0sa6IiUfF/CLgu2teefdCmTGIgW3e44kCAwEAAaNTMFEwHQYDVR0OBBYE
FLcn9fWkr75ssi4Ay7htQnAQjjxtMB8GA1UdIwQYMBaAFLcn9fWkr75ssi4Ay7ht
QnAQjjxtMA8GA1UdEwEB/wQFMAMBAf8wDQYJKoZIhvcNAQELBQADggEBAOnJx/QR
Ob/tc4rPzobcPL4Q6Gjy7lc9oul655blsdOd6xtjDRllHrslNoyDG628QLLVvWJJ
dajZIgVjRCd3uv9s2Lxt5ZQjmR0r2atHea3iWHxPm1qZ1E/FB64nP/2M1JwblK4O
KmJDT5iL6Y5jAlCMObKni/SJVznoTF+zSCUKPqHvBTjdevTyuIKsYChhOPlK0EZZ
/ejj5m1LQOJEJGMg3uKu6BScxsh84fgsrp68sQxJO4cLguxiBipsOq99W0z+Qijs
hvgmWNODDxbl84SexiePDjs5BiSf8nMQ9rSbYeikkzYoeXnVqhYhsa7gQvxTXu4u
V/il6i6PdFzr2dU=
-----END CERTIFICATE-----
